target datalayout = "e-m:e-p270:32:32-p271:32:32-p272:64:64-i64:64-i128:128-f80:128-n8:16:32:64-S128"
target triple = "x86_64-pc-linux-gnu"

%class.RadianceScalingRendererPlugin = type { %class.QObject, %class.RenderPlugin.base, i8, %class.QList, ptr, ptr, ptr, ptr, ptr, ptr, ptr, ptr, ptr, ptr, i32, i32, %class.MeshLabPlugin, %class.MeshLabPluginLogger }
%class.QObject = type { ptr, %class.QScopedPointer }
%class.QScopedPointer = type { ptr }
%class.RenderPlugin.base = type { ptr }
%class.QList = type { %union.anon }
%union.anon = type { %struct.QListData }
%struct.QListData = type { ptr }
%class.MeshLabPlugin = type { ptr, i8, %class.QFileInfo }
%class.QFileInfo = type { %class.QSharedDataPointer }
%class.QSharedDataPointer = type { ptr }
%class.MeshLabPluginLogger = type { ptr, ptr }
%class.TextureFormat = type { i32, i32, i32, i32, i32, i32, i32, i32, i32, i32 }
%class.TextureParams = type { i32, i32, i32, i32, i32, i32 }
%class.Texture2D = type { i32, %class.TextureFormat, %class.TextureParams }

; Function Attrs: mustprogress nounwind uwtable
define linkonce_odr void @_ZN13TextureParamsD2Ev(ptr noundef nonnull align 4 dereferenceable(24) %0) unnamed_addr #4 comdat align 2 {
  %2 = alloca ptr, align 8
  store ptr %0, ptr %2, align 8
  ret void
}

; Function Attrs: mustprogress nounwind uwtable
define linkonce_odr void @_ZN9Texture2DIhED2Ev(ptr noundef nonnull align 4 dereferenceable(68) %0) unnamed_addr #4 comdat align 2 personality ptr @__gxx_personality_v0 {
  %2 = alloca ptr, align 8
  store ptr %0, ptr %2, align 8
  %3 = load ptr, ptr %2, align 8
  %4 = getelementptr inbounds %class.Texture2D, ptr %3, i32 0, i32 0
  invoke void @glDeleteTextures(i32 noundef 1, ptr noundef %4)
          to label %5 unwind label %7

5:                                                ; preds = %1
  %6 = getelementptr inbounds %class.Texture2D, ptr %3, i32 0, i32 2
  call void @_ZN13TextureParamsD2Ev(ptr noundef nonnull align 4 dereferenceable(24) %6) #3
  ret void

7:                                                ; preds = %1
  %8 = landingpad { ptr, i32 }
          catch ptr null
  %9 = extractvalue { ptr, i32 } %8, 0
  call void @__clang_call_terminate(ptr %9) #13
  unreachable
}

; Function Attrs: mustprogress nounwind uwtable
define void @_ZN29RadianceScalingRendererPlugin12cleanShadersEv(ptr noundef nonnull align 8 dereferenceable(128) %0) #4 align 2 {
  %2 = alloca ptr, align 8
  store ptr %0, ptr %2, align 8
  %3 = load ptr, ptr %2, align 8
  %4 = getelementptr inbounds %class.RadianceScalingRendererPlugin, ptr %3, i32 0, i32 6
  %5 = load ptr, ptr %4, align 8
  %6 = icmp ne ptr %5, null
  br i1 %6, label %7, label %20

7:                                                ; preds = %1
  %8 = getelementptr inbounds %class.RadianceScalingRendererPlugin, ptr %3, i32 0, i32 6
  %9 = load ptr, ptr %8, align 8
  %10 = icmp eq ptr %9, null
  br i1 %10, label %12, label %11

11:                                               ; preds = %7
  call void @_ZN10GPUProgramD1Ev(ptr noundef nonnull align 8 dereferenceable(188) %9) #3
  call void @_ZdlPv(ptr noundef %9) #16
  br label %12

12:                                               ; preds = %11, %7
  %13 = getelementptr inbounds %class.RadianceScalingRendererPlugin, ptr %3, i32 0, i32 7
  %14 = load ptr, ptr %13, align 8
  %15 = icmp eq ptr %14, null
  br i1 %15, label %17, label %16

16:                                               ; preds = %12
  call void @_ZN10GPUProgramD1Ev(ptr noundef nonnull align 8 dereferenceable(188) %14) #3
  call void @_ZdlPv(ptr noundef %14) #16
  br label %17

17:                                               ; preds = %16, %12
  %18 = getelementptr inbounds %class.RadianceScalingRendererPlugin, ptr %3, i32 0, i32 6
  store ptr null, ptr %18, align 8
  %19 = getelementptr inbounds %class.RadianceScalingRendererPlugin, ptr %3, i32 0, i32 7
  store ptr null, ptr %19, align 8
  br label %20

20:                                               ; preds = %17, %1
  ret void
}

; Function Attrs: mustprogress uwtable
define void @_ZN29RadianceScalingRendererPlugin8finalizeEP7QActionP12MeshDocumentP6GLArea(ptr noundef nonnull align 8 dereferenceable(128) %0, ptr noundef %1, ptr noundef %2, ptr noundef %3) unnamed_addr #5 align 2 {
  %5 = alloca ptr, align 8
  %6 = alloca ptr, align 8
  %7 = alloca ptr, align 8
  %8 = alloca ptr, align 8
  store ptr %0, ptr %5, align 8
  store ptr %1, ptr %6, align 8
  store ptr %2, ptr %7, align 8
  store ptr %3, ptr %8, align 8
  %9 = load ptr, ptr %5, align 8
  call void @_ZN29RadianceScalingRendererPlugin12cleanShadersEv(ptr noundef nonnull align 8 dereferenceable(128) %9)
  call void @_ZN29RadianceScalingRendererPlugin9cleanFBOsEv(ptr noundef nonnull align 8 dereferenceable(128) %9)
  %10 = getelementptr inbounds %class.RadianceScalingRendererPlugin, ptr %9, i32 0, i32 4
  %11 = load ptr, ptr %10, align 8
  %12 = icmp ne ptr %11, null
  br i1 %12, label %13, label %26

13:                                               ; preds = %4
  %14 = getelementptr inbounds %class.RadianceScalingRendererPlugin, ptr %9, i32 0, i32 4
  %15 = load ptr, ptr %14, align 8
  %16 = call noundef zeroext i1 @_ZN7QWidget5closeEv(ptr noundef nonnull align 8 dereferenceable(48) %15)
  %17 = getelementptr inbounds %class.RadianceScalingRendererPlugin, ptr %9, i32 0, i32 4
  %18 = load ptr, ptr %17, align 8
  %19 = icmp eq ptr %18, null
  br i1 %19, label %24, label %20

20:                                               ; preds = %13
  %21 = load ptr, ptr %18, align 8
  %22 = getelementptr inbounds ptr, ptr %21, i64 4
  %23 = load ptr, ptr %22, align 8
  call void %23(ptr noundef nonnull align 8 dereferenceable(280) %18) #3
  br label %24

24:                                               ; preds = %20, %13
  %25 = getelementptr inbounds %class.RadianceScalingRendererPlugin, ptr %9, i32 0, i32 4
  store ptr null, ptr %25, align 8
  br label %26

26:                                               ; preds = %24, %4
  %27 = getelementptr inbounds %class.RadianceScalingRendererPlugin, ptr %9, i32 0, i32 12
  %28 = load ptr, ptr %27, align 8
  %29 = icmp ne ptr %28, null
  br i1 %29, label %30, label %37

30:                                               ; preds = %26
  %31 = getelementptr inbounds %class.RadianceScalingRendererPlugin, ptr %9, i32 0, i32 12
  %32 = load ptr, ptr %31, align 8
  %33 = icmp eq ptr %32, null
  br i1 %33, label %35, label %34

34:                                               ; preds = %30
  call void @_ZN9Texture2DIhED2Ev(ptr noundef nonnull align 4 dereferenceable(68) %32) #3
  call void @_ZdlPv(ptr noundef %32) #16
  br label %35

35:                                               ; preds = %34, %30
  %36 = getelementptr inbounds %class.RadianceScalingRendererPlugin, ptr %9, i32 0, i32 12
  store ptr null, ptr %36, align 8
  br label %37

37:                                               ; preds = %35, %26
  %38 = getelementptr inbounds %class.RadianceScalingRendererPlugin, ptr %9, i32 0, i32 13
  %39 = load ptr, ptr %38, align 8
  %40 = icmp ne ptr %39, null
  br i1 %40, label %41, label %48

41:                                               ; preds = %37
  %42 = getelementptr inbounds %class.RadianceScalingRendererPlugin, ptr %9, i32 0, i32 13
  %43 = load ptr, ptr %42, align 8
  %44 = icmp eq ptr %43, null
  br i1 %44, label %46, label %45

45:                                               ; preds = %41
  call void @_ZN9Texture2DIhED2Ev(ptr noundef nonnull align 4 dereferenceable(68) %43) #3
  call void @_ZdlPv(ptr noundef %43) #16
  br label %46

46:                                               ; preds = %45, %41
  %47 = getelementptr inbounds %class.RadianceScalingRendererPlugin, ptr %9, i32 0, i32 13
  store ptr null, ptr %47, align 8
  br label %48

48:                                               ; preds = %46, %37
  ret void
}