; Function Attrs: mustprogress uwtable
define void @_ZN29RadianceScalingRendererPlugin8finalizeEP7QActionP12MeshDocumentP6GLArea(ptr nocapture noundef nonnull align 8 dereferenceable(128) %0, ptr nocapture readnone %1, ptr nocapture readnone %2, ptr nocapture readnone %3) unnamed_addr #9 align 2 personality ptr @__gxx_personality_v0 {
  %5 = getelementptr inbounds i8, ptr %0, i64 56
  %6 = load ptr, ptr %5, align 8
  %.not.i = icmp eq ptr %6, null
  br i1 %.not.i, label %_ZN29RadianceScalingRendererPlugin12cleanShadersEv.exit, label %7

7:                                                ; preds = %4
  tail call void @_ZN10GPUProgramD1Ev(ptr noundef nonnull align 8 dereferenceable(188) %6) #17
  tail call void @_ZdlPv(ptr noundef nonnull %6) #16
  %8 = getelementptr inbounds i8, ptr %0, i64 64
  %9 = load ptr, ptr %8, align 8
  %10 = icmp eq ptr %9, null
  br i1 %10, label %12, label %11

11:                                               ; preds = %7
  tail call void @_ZN10GPUProgramD1Ev(ptr noundef nonnull align 8 dereferenceable(188) %9) #17
  tail call void @_ZdlPv(ptr noundef nonnull %9) #16
  br label %12

12:                                               ; preds = %11, %7
  tail call void @llvm.memset.p0.i64(ptr noundef nonnull align 8 dereferenceable(16) %5, i8 0, i64 16, i1 false)
  br label %_ZN29RadianceScalingRendererPlugin12cleanShadersEv.exit

_ZN29RadianceScalingRendererPlugin12cleanShadersEv.exit: ; preds = %4, %12
  tail call void @_ZN29RadianceScalingRendererPlugin9cleanFBOsEv(ptr noundef nonnull align 8 dereferenceable(128) %0)
  %13 = getelementptr inbounds i8, ptr %0, i64 40
  %14 = load ptr, ptr %13, align 8
  %.not = icmp eq ptr %14, null
  br i1 %.not, label %24, label %15

15:                                               ; preds = %_ZN29RadianceScalingRendererPlugin12cleanShadersEv.exit
  %16 = tail call noundef zeroext i1 @_ZN7QWidget5closeEv(ptr noundef nonnull align 8 dereferenceable(48) %14)
  %17 = load ptr, ptr %13, align 8
  %18 = icmp eq ptr %17, null
  br i1 %18, label %23, label %19

19:                                               ; preds = %15
  %20 = load ptr, ptr %17, align 8
  %21 = getelementptr inbounds i8, ptr %20, i64 32
  %22 = load ptr, ptr %21, align 8
  tail call void %22(ptr noundef nonnull align 8 dereferenceable(280) %17) #17
  br label %23

23:                                               ; preds = %19, %15
  store ptr null, ptr %13, align 8
  br label %24

24:                                               ; preds = %23, %_ZN29RadianceScalingRendererPlugin12cleanShadersEv.exit
  %25 = getelementptr inbounds i8, ptr %0, i64 104
  %26 = load ptr, ptr %25, align 8
  %.not4 = icmp eq ptr %26, null
  br i1 %.not4, label %31, label %27

27:                                               ; preds = %24
  invoke void @glDeleteTextures(i32 noundef 1, ptr noundef nonnull %26)
          to label %_ZN9Texture2DIhED2Ev.exit unwind label %28

28:                                               ; preds = %27
  %29 = landingpad { ptr, i32 }
          catch ptr null
  %30 = extractvalue { ptr, i32 } %29, 0
  tail call void @__clang_call_terminate(ptr %30) #18
  unreachable

_ZN9Texture2DIhED2Ev.exit:                        ; preds = %27
  tail call void @_ZdlPv(ptr noundef nonnull %26) #16
  store ptr null, ptr %25, align 8
  br label %31

31:                                               ; preds = %_ZN9Texture2DIhED2Ev.exit, %24
  %32 = getelementptr inbounds i8, ptr %0, i64 112
  %33 = load ptr, ptr %32, align 8
  %.not5 = icmp eq ptr %33, null
  br i1 %.not5, label %38, label %34

34:                                               ; preds = %31
  invoke void @glDeleteTextures(i32 noundef 1, ptr noundef nonnull %33)
          to label %_ZN9Texture2DIhED2Ev.exit6 unwind label %35

35:                                               ; preds = %34
  %36 = landingpad { ptr, i32 }
          catch ptr null
  %37 = extractvalue { ptr, i32 } %36, 0
  tail call void @__clang_call_terminate(ptr %37) #18
  unreachable

_ZN9Texture2DIhED2Ev.exit6:                       ; preds = %34
  tail call void @_ZdlPv(ptr noundef nonnull %33) #16
  store ptr null, ptr %32, align 8
  br label %38

38:                                               ; preds = %_ZN9Texture2DIhED2Ev.exit6, %31
  ret void
}